; Function Attrs: nounwind uwtable
define internal ptr @syslog_LOG_UPTO(ptr readnone captures(none) %0, ptr noundef %1) #0 {
  %3 = tail call i64 @PyLong_AsLong(ptr noundef %1) #5
  %4 = icmp eq i64 %3, -1
  br i1 %4, label %9, label %.split

.split:                                           ; preds = %2
  %5 = trunc i64 %3 to i32
  %6 = add i32 %5, 1
  %notmask.i = shl nsw i32 -1, %6
  %7 = xor i32 %notmask.i, -1
  %8 = zext nneg i32 %7 to i64
  br label %11

9:                                                ; preds = %2
  %10 = tail call ptr @PyErr_Occurred() #5
  %.not = icmp eq ptr %10, null
  br i1 %.not, label %11, label %13

11:                                               ; preds = %.split, %9
  %phi.call = phi i64 [ %8, %.split ], [ 0, %9 ]
  %12 = tail call ptr @PyLong_FromLong(i64 noundef %phi.call) #5
  br label %13

13:                                               ; preds = %9, %11
  %.0 = phi ptr [ null, %9 ], [ %12, %11 ]
  ret ptr %.0
}